target datalayout = "e-m:e-p270:32:32-p271:32:32-p272:64:64-i64:64-i128:128-f80:128-n8:16:32:64-S128"
target triple = "x86_64-pc-linux-gnu"

%struct._comprehension = type { ptr, ptr, ptr, i32 }

@PyExc_ValueError = external global ptr, align 8
@.str.60 = private unnamed_addr constant [45 x i8] c"field 'target' is required for comprehension\00", align 1
@.str.61 = private unnamed_addr constant [43 x i8] c"field 'iter' is required for comprehension\00", align 1

; Function Attrs: nounwind uwtable
define hidden ptr @_PyAST_comprehension(ptr noundef %0, ptr noundef %1, ptr noundef %2, i32 noundef %3, ptr noundef %4) #0 {
  %6 = alloca ptr, align 8
  %7 = alloca ptr, align 8
  %8 = alloca ptr, align 8
  %9 = alloca ptr, align 8
  %10 = alloca i32, align 4
  %11 = alloca ptr, align 8
  %12 = alloca ptr, align 8
  %13 = alloca i32, align 4
  store ptr %0, ptr %7, align 8, !tbaa !34
  store ptr %1, ptr %8, align 8, !tbaa !34
  store ptr %2, ptr %9, align 8, !tbaa !26
  store i32 %3, ptr %10, align 4, !tbaa !38
  store ptr %4, ptr %11, align 8, !tbaa !24
  call void @llvm.lifetime.start.p0(i64 8, ptr %12) #8
  %14 = load ptr, ptr %7, align 8, !tbaa !34
  %15 = icmp ne ptr %14, null
  br i1 %15, label %18, label %16

16:                                               ; preds = %5
  %17 = load ptr, ptr @PyExc_ValueError, align 8, !tbaa !13
  call void @PyErr_SetString(ptr noundef %17, ptr noundef @.str.60)
  store ptr null, ptr %6, align 8
  store i32 1, ptr %13, align 4
  br label %43

18:                                               ; preds = %5
  %19 = load ptr, ptr %8, align 8, !tbaa !34
  %20 = icmp ne ptr %19, null
  br i1 %20, label %23, label %21

21:                                               ; preds = %18
  %22 = load ptr, ptr @PyExc_ValueError, align 8, !tbaa !13
  call void @PyErr_SetString(ptr noundef %22, ptr noundef @.str.61)
  store ptr null, ptr %6, align 8
  store i32 1, ptr %13, align 4
  br label %43

23:                                               ; preds = %18
  %24 = load ptr, ptr %11, align 8, !tbaa !24
  %25 = call ptr @_PyArena_Malloc(ptr noundef %24, i64 noundef 32)
  store ptr %25, ptr %12, align 8, !tbaa !53
  %26 = load ptr, ptr %12, align 8, !tbaa !53
  %27 = icmp ne ptr %26, null
  br i1 %27, label %29, label %28

28:                                               ; preds = %23
  store ptr null, ptr %6, align 8
  store i32 1, ptr %13, align 4
  br label %43

29:                                               ; preds = %23
  %30 = load ptr, ptr %7, align 8, !tbaa !34
  %31 = load ptr, ptr %12, align 8, !tbaa !53
  %32 = getelementptr inbounds nuw %struct._comprehension, ptr %31, i32 0, i32 0
  store ptr %30, ptr %32, align 8, !tbaa !55
  %33 = load ptr, ptr %8, align 8, !tbaa !34
  %34 = load ptr, ptr %12, align 8, !tbaa !53
  %35 = getelementptr inbounds nuw %struct._comprehension, ptr %34, i32 0, i32 1
  store ptr %33, ptr %35, align 8, !tbaa !57
  %36 = load ptr, ptr %9, align 8, !tbaa !26
  %37 = load ptr, ptr %12, align 8, !tbaa !53
  %38 = getelementptr inbounds nuw %struct._comprehension, ptr %37, i32 0, i32 2
  store ptr %36, ptr %38, align 8, !tbaa !58
  %39 = load i32, ptr %10, align 4, !tbaa !38
  %40 = load ptr, ptr %12, align 8, !tbaa !53
  %41 = getelementptr inbounds nuw %struct._comprehension, ptr %40, i32 0, i32 3
  store i32 %39, ptr %41, align 8, !tbaa !59
  %42 = load ptr, ptr %12, align 8, !tbaa !53
  store ptr %42, ptr %6, align 8
  store i32 1, ptr %13, align 4
  br label %43

43:                                               ; preds = %29, %28, %21, %16
  call void @llvm.lifetime.end.p0(i64 8, ptr %12) #8
  %44 = load ptr, ptr %6, align 8
  ret ptr %44
}