; Function Attrs: nounwind uwtable
define hidden ptr @_PyAST_comprehension(ptr noundef %0, ptr noundef %1, ptr noundef %2, i32 noundef %3, ptr noundef %4) local_unnamed_addr #0 {
  %.not = icmp eq ptr %0, null
  br i1 %.not, label %6, label %8

6:                                                ; preds = %5
  %7 = load ptr, ptr @PyExc_ValueError, align 8, !tbaa !4
  tail call void @PyErr_SetString(ptr noundef %7, ptr noundef nonnull @.str.60) #8
  br label %17

8:                                                ; preds = %5
  %.not16 = icmp eq ptr %1, null
  br i1 %.not16, label %9, label %11

9:                                                ; preds = %8
  %10 = load ptr, ptr @PyExc_ValueError, align 8, !tbaa !4
  tail call void @PyErr_SetString(ptr noundef %10, ptr noundef nonnull @.str.61) #8
  br label %17

11:                                               ; preds = %8
  %12 = tail call ptr @_PyArena_Malloc(ptr noundef %4, i64 noundef 32) #8
  %.not17 = icmp eq ptr %12, null
  br i1 %.not17, label %17, label %13

13:                                               ; preds = %11
  store ptr %0, ptr %12, align 8, !tbaa !32
  %14 = getelementptr inbounds nuw i8, ptr %12, i64 8
  store ptr %1, ptr %14, align 8, !tbaa !35
  %15 = getelementptr inbounds nuw i8, ptr %12, i64 16
  store ptr %2, ptr %15, align 8, !tbaa !36
  %16 = getelementptr inbounds nuw i8, ptr %12, i64 24
  store i32 %3, ptr %16, align 8, !tbaa !37
  br label %17

17:                                               ; preds = %11, %13, %9, %6
  %.0 = phi ptr [ %12, %13 ], [ null, %9 ], [ null, %6 ], [ null, %11 ]
  ret ptr %.0
}